target datalayout = "e-m:e-p270:32:32-p271:32:32-p272:64:64-i64:64-i128:128-f80:128-n8:16:32:64-S128"
target triple = "x86_64-pc-linux-gnu"

%struct.H5FL_reg_head_t = type { i8, i32, i32, ptr, i64, ptr }
%struct.H5FL_arr_head_t = type { i8, i32, i64, ptr, i32, i64, i64, ptr }
%struct.H5D_bt2_ctx_ud_t = type { ptr, i32, i32, ptr }
%struct.H5D_bt2_ctx_t = type { i32, i64, i64, i32, ptr }

@H5_H5D_bt2_ctx_t_reg_free_list = internal global %struct.H5FL_reg_head_t { i8 0, i32 0, i32 0, ptr @.str.5, i64 40, ptr null }, align 8
@.str.2 = private unnamed_addr constant [103 x i8] c"generated/home/dtcxzyw/WorkSpace/Projects/compilers/llvm-opt-benchmark/bench/hdf5/hdf5/src/H5Dbtree2.c\00", align 1
@__func__.H5D__bt2_crt_context = private unnamed_addr constant [21 x i8] c"H5D__bt2_crt_context\00", align 1
@H5E_DATASET_g = external global i64, align 8
@H5E_CANTALLOC_g = external global i64, align 8
@.str.3 = private unnamed_addr constant [32 x i8] c"can't allocate callback context\00", align 1
@H5_uint32_t_arr_free_list = internal global %struct.H5FL_arr_head_t { i8 0, i32 0, i64 0, ptr @.str.6, i32 34, i64 0, i64 4, ptr null }, align 8
@.str.4 = private unnamed_addr constant [26 x i8] c"can't allocate chunk dims\00", align 1

; Function Attrs: nounwind uwtable
define internal i32 @H5VM_log2_gen(i64 noundef %0) #0 {
  %2 = alloca i64, align 8
  %3 = alloca i32, align 4
  %4 = alloca i32, align 4
  %5 = alloca i32, align 4
  %6 = alloca i32, align 4
  store i64 %0, ptr %2, align 8
  %7 = load i64, ptr %2, align 8
  %8 = lshr i64 %7, 32
  %9 = trunc i64 %8 to i32
  store i32 %9, ptr %6, align 4
  %10 = icmp ne i32 %9, 0
  br i1 %10, label %11, label %61

11:                                               ; preds = %1
  %12 = load i64, ptr %2, align 8
  %13 = lshr i64 %12, 48
  %14 = trunc i64 %13 to i32
  store i32 %14, ptr %5, align 4
  %15 = icmp ne i32 %14, 0
  br i1 %15, label %16, label %38

16:                                               ; preds = %11
  %17 = load i64, ptr %2, align 8
  %18 = lshr i64 %17, 56
  %19 = trunc i64 %18 to i32
  store i32 %19, ptr %4, align 4
  %20 = icmp ne i32 %19, 0
  br i1 %20, label %21, label %28

21:                                               ; preds = %16
  %22 = load i32, ptr %4, align 4
  %23 = zext i32 %22 to i64
  %24 = getelementptr inbounds [256 x i8], ptr @LogTable256, i64 0, i64 %23
  %25 = load i8, ptr %24, align 1
  %26 = zext i8 %25 to i32
  %27 = add i32 56, %26
  br label %36

28:                                               ; preds = %16
  %29 = load i32, ptr %5, align 4
  %30 = and i32 %29, 255
  %31 = zext i32 %30 to i64
  %32 = getelementptr inbounds [256 x i8], ptr @LogTable256, i64 0, i64 %31
  %33 = load i8, ptr %32, align 1
  %34 = zext i8 %33 to i32
  %35 = add i32 48, %34
  br label %36

36:                                               ; preds = %28, %21
  %37 = phi i32 [ %27, %21 ], [ %35, %28 ]
  store i32 %37, ptr %3, align 4
  br label %60

38:                                               ; preds = %11
  %39 = load i64, ptr %2, align 8
  %40 = lshr i64 %39, 40
  %41 = trunc i64 %40 to i32
  store i32 %41, ptr %4, align 4
  %42 = icmp ne i32 %41, 0
  br i1 %42, label %43, label %50

43:                                               ; preds = %38
  %44 = load i32, ptr %4, align 4
  %45 = zext i32 %44 to i64
  %46 = getelementptr inbounds [256 x i8], ptr @LogTable256, i64 0, i64 %45
  %47 = load i8, ptr %46, align 1
  %48 = zext i8 %47 to i32
  %49 = add i32 40, %48
  br label %58

50:                                               ; preds = %38
  %51 = load i32, ptr %6, align 4
  %52 = and i32 %51, 255
  %53 = zext i32 %52 to i64
  %54 = getelementptr inbounds [256 x i8], ptr @LogTable256, i64 0, i64 %53
  %55 = load i8, ptr %54, align 1
  %56 = zext i8 %55 to i32
  %57 = add i32 32, %56
  br label %58

58:                                               ; preds = %50, %43
  %59 = phi i32 [ %49, %43 ], [ %57, %50 ]
  store i32 %59, ptr %3, align 4
  br label %60

60:                                               ; preds = %58, %36
  br label %110

61:                                               ; preds = %1
  %62 = load i64, ptr %2, align 8
  %63 = lshr i64 %62, 16
  %64 = trunc i64 %63 to i32
  store i32 %64, ptr %5, align 4
  %65 = icmp ne i32 %64, 0
  br i1 %65, label %66, label %88

66:                                               ; preds = %61
  %67 = load i64, ptr %2, align 8
  %68 = lshr i64 %67, 24
  %69 = trunc i64 %68 to i32
  store i32 %69, ptr %4, align 4
  %70 = icmp ne i32 %69, 0
  br i1 %70, label %71, label %78

71:                                               ; preds = %66
  %72 = load i32, ptr %4, align 4
  %73 = zext i32 %72 to i64
  %74 = getelementptr inbounds [256 x i8], ptr @LogTable256, i64 0, i64 %73
  %75 = load i8, ptr %74, align 1
  %76 = zext i8 %75 to i32
  %77 = add i32 24, %76
  br label %86

78:                                               ; preds = %66
  %79 = load i32, ptr %5, align 4
  %80 = and i32 %79, 255
  %81 = zext i32 %80 to i64
  %82 = getelementptr inbounds [256 x i8], ptr @LogTable256, i64 0, i64 %81
  %83 = load i8, ptr %82, align 1
  %84 = zext i8 %83 to i32
  %85 = add i32 16, %84
  br label %86

86:                                               ; preds = %78, %71
  %87 = phi i32 [ %77, %71 ], [ %85, %78 ]
  store i32 %87, ptr %3, align 4
  br label %109

88:                                               ; preds = %61
  %89 = load i64, ptr %2, align 8
  %90 = lshr i64 %89, 8
  %91 = trunc i64 %90 to i32
  store i32 %91, ptr %4, align 4
  %92 = icmp ne i32 %91, 0
  br i1 %92, label %93, label %100

93:                                               ; preds = %88
  %94 = load i32, ptr %4, align 4
  %95 = zext i32 %94 to i64
  %96 = getelementptr inbounds [256 x i8], ptr @LogTable256, i64 0, i64 %95
  %97 = load i8, ptr %96, align 1
  %98 = zext i8 %97 to i32
  %99 = add i32 8, %98
  br label %107

100:                                              ; preds = %88
  %101 = load i64, ptr %2, align 8
  %102 = trunc i64 %101 to i8
  %103 = zext i8 %102 to i64
  %104 = getelementptr inbounds [256 x i8], ptr @LogTable256, i64 0, i64 %103
  %105 = load i8, ptr %104, align 1
  %106 = zext i8 %105 to i32
  br label %107

107:                                              ; preds = %100, %93
  %108 = phi i32 [ %99, %93 ], [ %106, %100 ]
  store i32 %108, ptr %3, align 4
  br label %109

109:                                              ; preds = %107, %86
  br label %110

110:                                              ; preds = %109, %60
  %111 = load i32, ptr %3, align 4
  ret i32 %111
}

; Function Attrs: nounwind uwtable
define internal ptr @H5D__bt2_crt_context(ptr noundef %0) #0 {
  %2 = alloca ptr, align 8
  %3 = alloca ptr, align 8
  %4 = alloca ptr, align 8
  %5 = alloca ptr, align 8
  %6 = alloca ptr, align 8
  %7 = alloca i8, align 1
  store ptr %0, ptr %2, align 8
  %8 = load ptr, ptr %2, align 8
  store ptr %8, ptr %3, align 8
  store ptr null, ptr %5, align 8
  store ptr null, ptr %6, align 8
  store i8 0, ptr %7, align 1
  %9 = call noalias ptr @H5FL_reg_malloc(ptr noundef @H5_H5D_bt2_ctx_t_reg_free_list)
  store ptr %9, ptr %4, align 8
  %10 = icmp eq ptr null, %9
  br i1 %10, label %11, label %26

11:                                               ; preds = %1
  br label %12

12:                                               ; preds = %11
  br label %13

13:                                               ; preds = %12
  br label %14

14:                                               ; preds = %13
  %15 = load i64, ptr @H5E_DATASET_g, align 8
  %16 = load i64, ptr @H5E_CANTALLOC_g, align 8
  %17 = call i32 (ptr, ptr, i32, i64, i64, ptr, ...) @H5E_printf_stack(ptr noundef @.str.2, ptr noundef @__func__.H5D__bt2_crt_context, i32 noundef 237, i64 noundef %15, i64 noundef %16, ptr noundef @.str.3)
  br label %18

18:                                               ; preds = %14
  store i8 1, ptr %7, align 1
  %19 = load i8, ptr %7, align 1
  %20 = trunc i8 %19 to i1
  %21 = zext i1 %20 to i8
  store i8 %21, ptr %7, align 1
  br label %22

22:                                               ; preds = %18
  br label %23

23:                                               ; preds = %22
  store ptr null, ptr %6, align 8
  br label %89

24:                                               ; No predecessors!
  br label %25

25:                                               ; preds = %24
  br label %26

26:                                               ; preds = %25, %1
  %27 = load ptr, ptr %3, align 8
  %28 = getelementptr inbounds %struct.H5D_bt2_ctx_ud_t, ptr %27, i32 0, i32 0
  %29 = load ptr, ptr %28, align 8
  %30 = call zeroext i8 @H5F_sizeof_addr(ptr noundef %29)
  %31 = zext i8 %30 to i64
  %32 = load ptr, ptr %4, align 8
  %33 = getelementptr inbounds %struct.H5D_bt2_ctx_t, ptr %32, i32 0, i32 1
  store i64 %31, ptr %33, align 8
  %34 = load ptr, ptr %3, align 8
  %35 = getelementptr inbounds %struct.H5D_bt2_ctx_ud_t, ptr %34, i32 0, i32 1
  %36 = load i32, ptr %35, align 8
  %37 = load ptr, ptr %4, align 8
  %38 = getelementptr inbounds %struct.H5D_bt2_ctx_t, ptr %37, i32 0, i32 0
  store i32 %36, ptr %38, align 8
  %39 = load ptr, ptr %3, align 8
  %40 = getelementptr inbounds %struct.H5D_bt2_ctx_ud_t, ptr %39, i32 0, i32 2
  %41 = load i32, ptr %40, align 4
  %42 = load ptr, ptr %4, align 8
  %43 = getelementptr inbounds %struct.H5D_bt2_ctx_t, ptr %42, i32 0, i32 3
  store i32 %41, ptr %43, align 8
  %44 = call noalias ptr @H5FL_arr_malloc(ptr noundef @H5_uint32_t_arr_free_list, i64 noundef 33)
  store ptr %44, ptr %5, align 8
  %45 = icmp eq ptr null, %44
  br i1 %45, label %46, label %61

46:                                               ; preds = %26
  br label %47

47:                                               ; preds = %46
  br label %48

48:                                               ; preds = %47
  br label %49

49:                                               ; preds = %48
  %50 = load i64, ptr @H5E_DATASET_g, align 8
  %51 = load i64, ptr @H5E_CANTALLOC_g, align 8
  %52 = call i32 (ptr, ptr, i32, i64, i64, ptr, ...) @H5E_printf_stack(ptr noundef @.str.2, ptr noundef @__func__.H5D__bt2_crt_context, i32 noundef 246, i64 noundef %50, i64 noundef %51, ptr noundef @.str.4)
  br label %53

53:                                               ; preds = %49
  store i8 1, ptr %7, align 1
  %54 = load i8, ptr %7, align 1
  %55 = trunc i8 %54 to i1
  %56 = zext i1 %55 to i8
  store i8 %56, ptr %7, align 1
  br label %57

57:                                               ; preds = %53
  br label %58

58:                                               ; preds = %57
  store ptr null, ptr %6, align 8
  br label %89

59:                                               ; No predecessors!
  br label %60

60:                                               ; preds = %59
  br label %61

61:                                               ; preds = %60, %26
  %62 = load ptr, ptr %5, align 8
  %63 = load ptr, ptr %3, align 8
  %64 = getelementptr inbounds %struct.H5D_bt2_ctx_ud_t, ptr %63, i32 0, i32 3
  %65 = load ptr, ptr %64, align 8
  call void @llvm.memcpy.p0.p0.i64(ptr align 4 %62, ptr align 4 %65, i64 132, i1 false)
  %66 = load ptr, ptr %5, align 8
  %67 = load ptr, ptr %4, align 8
  %68 = getelementptr inbounds %struct.H5D_bt2_ctx_t, ptr %67, i32 0, i32 4
  store ptr %66, ptr %68, align 8
  %69 = load ptr, ptr %3, align 8
  %70 = getelementptr inbounds %struct.H5D_bt2_ctx_ud_t, ptr %69, i32 0, i32 1
  %71 = load i32, ptr %70, align 8
  %72 = zext i32 %71 to i64
  %73 = call i32 @H5VM_log2_gen(i64 noundef %72)
  %74 = add i32 %73, 8
  %75 = udiv i32 %74, 8
  %76 = add i32 1, %75
  %77 = zext i32 %76 to i64
  %78 = load ptr, ptr %4, align 8
  %79 = getelementptr inbounds %struct.H5D_bt2_ctx_t, ptr %78, i32 0, i32 2
  store i64 %77, ptr %79, align 8
  %80 = load ptr, ptr %4, align 8
  %81 = getelementptr inbounds %struct.H5D_bt2_ctx_t, ptr %80, i32 0, i32 2
  %82 = load i64, ptr %81, align 8
  %83 = icmp ugt i64 %82, 8
  br i1 %83, label %84, label %87

84:                                               ; preds = %61
  %85 = load ptr, ptr %4, align 8
  %86 = getelementptr inbounds %struct.H5D_bt2_ctx_t, ptr %85, i32 0, i32 2
  store i64 8, ptr %86, align 8
  br label %87

87:                                               ; preds = %84, %61
  %88 = load ptr, ptr %4, align 8
  store ptr %88, ptr %6, align 8
  br label %89

89:                                               ; preds = %87, %58, %23
  %90 = load ptr, ptr %6, align 8
  ret ptr %90
}