; Function Attrs: nounwind uwtable
define internal noalias ptr @H5D__bt2_crt_context(ptr nocapture noundef readonly %0) #1 {
  %2 = tail call noalias ptr @H5FL_reg_malloc(ptr noundef nonnull @H5_H5D_bt2_ctx_t_reg_free_list) #14
  %3 = icmp eq ptr %2, null
  br i1 %3, label %4, label %8

4:                                                ; preds = %1
  %5 = load i64, ptr @H5E_DATASET_g, align 8
  %6 = load i64, ptr @H5E_CANTALLOC_g, align 8
  %7 = tail call i32 (ptr, ptr, i32, i64, i64, ptr, ...) @H5E_printf_stack(ptr noundef nonnull @.str.2, ptr noundef nonnull @__func__.H5D__bt2_crt_context, i32 noundef 237, i64 noundef %5, i64 noundef %6, ptr noundef nonnull @.str.3) #14
  br label %60

8:                                                ; preds = %1
  %9 = load ptr, ptr %0, align 8
  %10 = tail call zeroext i8 @H5F_sizeof_addr(ptr noundef %9) #14
  %11 = zext i8 %10 to i64
  %12 = getelementptr inbounds i8, ptr %2, i64 8
  store i64 %11, ptr %12, align 8
  %13 = getelementptr inbounds i8, ptr %0, i64 8
  %14 = load i32, ptr %13, align 8
  store i32 %14, ptr %2, align 8
  %15 = getelementptr inbounds i8, ptr %0, i64 12
  %16 = load i32, ptr %15, align 4
  %17 = getelementptr inbounds i8, ptr %2, i64 24
  store i32 %16, ptr %17, align 8
  %18 = tail call noalias ptr @H5FL_arr_malloc(ptr noundef nonnull @H5_uint32_t_arr_free_list, i64 noundef 33) #14
  %19 = icmp eq ptr %18, null
  br i1 %19, label %20, label %24

20:                                               ; preds = %8
  %21 = load i64, ptr @H5E_DATASET_g, align 8
  %22 = load i64, ptr @H5E_CANTALLOC_g, align 8
  %23 = tail call i32 (ptr, ptr, i32, i64, i64, ptr, ...) @H5E_printf_stack(ptr noundef nonnull @.str.2, ptr noundef nonnull @__func__.H5D__bt2_crt_context, i32 noundef 246, i64 noundef %21, i64 noundef %22, ptr noundef nonnull @.str.4) #14
  br label %60

24:                                               ; preds = %8
  %25 = getelementptr inbounds i8, ptr %0, i64 16
  %26 = load ptr, ptr %25, align 8
  tail call void @llvm.memcpy.p0.p0.i64(ptr noundef nonnull align 4 dereferenceable(132) %18, ptr noundef nonnull align 4 dereferenceable(132) %26, i64 132, i1 false)
  %27 = getelementptr inbounds i8, ptr %2, i64 32
  store ptr %18, ptr %27, align 8
  %28 = load i32, ptr %13, align 8
  %29 = zext i32 %28 to i64
  %30 = lshr i64 %29, 16
  %.not.i = icmp ult i32 %28, 65536
  br i1 %.not.i, label %44, label %31

31:                                               ; preds = %24
  %.not24.i = icmp ult i32 %28, 16777216
  br i1 %.not24.i, label %38, label %32

32:                                               ; preds = %31
  %33 = lshr i64 %29, 24
  %34 = getelementptr inbounds [256 x i8], ptr @LogTable256, i64 0, i64 %33
  %35 = load i8, ptr %34, align 1
  %36 = zext i8 %35 to i32
  %37 = add nuw nsw i32 %36, 24
  br label %H5VM_log2_gen.exit

38:                                               ; preds = %31
  %39 = and i64 %30, 255
  %40 = getelementptr inbounds [256 x i8], ptr @LogTable256, i64 0, i64 %39
  %41 = load i8, ptr %40, align 1
  %42 = zext i8 %41 to i32
  %43 = add nuw nsw i32 %42, 16
  br label %H5VM_log2_gen.exit

44:                                               ; preds = %24
  %.not23.i = icmp ult i32 %28, 256
  br i1 %.not23.i, label %51, label %45

45:                                               ; preds = %44
  %46 = lshr i64 %29, 8
  %47 = getelementptr inbounds [256 x i8], ptr @LogTable256, i64 0, i64 %46
  %48 = load i8, ptr %47, align 1
  %49 = zext i8 %48 to i32
  %50 = add nuw nsw i32 %49, 8
  br label %H5VM_log2_gen.exit

51:                                               ; preds = %44
  %52 = getelementptr inbounds [256 x i8], ptr @LogTable256, i64 0, i64 %29
  %53 = load i8, ptr %52, align 1
  %54 = zext i8 %53 to i32
  br label %H5VM_log2_gen.exit

H5VM_log2_gen.exit:                               ; preds = %32, %38, %45, %51
  %.0.i = phi i32 [ %37, %32 ], [ %43, %38 ], [ %50, %45 ], [ %54, %51 ]
  %55 = add nuw nsw i32 %.0.i, 8
  %56 = lshr i32 %55, 3
  %57 = add nuw nsw i32 %56, 1
  %58 = getelementptr inbounds i8, ptr %2, i64 16
  %59 = icmp ugt i32 %.0.i, 55
  %narrow = select i1 %59, i32 8, i32 %57
  %spec.select = zext nneg i32 %narrow to i64
  store i64 %spec.select, ptr %58, align 8
  br label %60

60:                                               ; preds = %H5VM_log2_gen.exit, %20, %4
  %.0 = phi ptr [ null, %4 ], [ null, %20 ], [ %2, %H5VM_log2_gen.exit ]
  ret ptr %.0
}